target datalayout = "e-m:e-p270:32:32-p271:32:32-p272:64:64-i64:64-i128:128-f80:128-n8:16:32:64-S128"
target triple = "x86_64-pc-linux-gnu"

%struct._zend_gc_globals = type { ptr, i8, i8, i8, i8, i32, i32, i32, i32, i32, i32, i32, i64, i64, i64, i64 }
%struct.timespec = type { i64, i64 }
%struct._zend_gc_status = type { i8, i8, i8, i32, i32, i32, i32, i32, i64, i64, i64, i64 }

@gc_globals = internal global %struct._zend_gc_globals zeroinitializer, align 8

; Function Attrs: nounwind uwtable
define void @zend_gc_get_status(ptr noundef %0) #0 {
  %2 = alloca i64, align 8
  %3 = alloca %struct.timespec, align 8
  %4 = alloca ptr, align 8
  store ptr %0, ptr %4, align 8
  %5 = load i8, ptr getelementptr inbounds (%struct._zend_gc_globals, ptr @gc_globals, i32 0, i32 2), align 1
  %6 = trunc i8 %5 to i1
  %7 = load ptr, ptr %4, align 8
  %8 = getelementptr inbounds %struct._zend_gc_status, ptr %7, i32 0, i32 0
  %9 = zext i1 %6 to i8
  store i8 %9, ptr %8, align 8
  %10 = load i8, ptr getelementptr inbounds (%struct._zend_gc_globals, ptr @gc_globals, i32 0, i32 3), align 2
  %11 = trunc i8 %10 to i1
  %12 = load ptr, ptr %4, align 8
  %13 = getelementptr inbounds %struct._zend_gc_status, ptr %12, i32 0, i32 1
  %14 = zext i1 %11 to i8
  store i8 %14, ptr %13, align 1
  %15 = load i8, ptr getelementptr inbounds (%struct._zend_gc_globals, ptr @gc_globals, i32 0, i32 4), align 1
  %16 = trunc i8 %15 to i1
  %17 = load ptr, ptr %4, align 8
  %18 = getelementptr inbounds %struct._zend_gc_status, ptr %17, i32 0, i32 2
  %19 = zext i1 %16 to i8
  store i8 %19, ptr %18, align 2
  %20 = load i32, ptr getelementptr inbounds (%struct._zend_gc_globals, ptr @gc_globals, i32 0, i32 10), align 8
  %21 = load ptr, ptr %4, align 8
  %22 = getelementptr inbounds %struct._zend_gc_status, ptr %21, i32 0, i32 3
  store i32 %20, ptr %22, align 4
  %23 = load i32, ptr getelementptr inbounds (%struct._zend_gc_globals, ptr @gc_globals, i32 0, i32 11), align 4
  %24 = load ptr, ptr %4, align 8
  %25 = getelementptr inbounds %struct._zend_gc_status, ptr %24, i32 0, i32 4
  store i32 %23, ptr %25, align 8
  %26 = load i32, ptr getelementptr inbounds (%struct._zend_gc_globals, ptr @gc_globals, i32 0, i32 7), align 4
  %27 = load ptr, ptr %4, align 8
  %28 = getelementptr inbounds %struct._zend_gc_status, ptr %27, i32 0, i32 5
  store i32 %26, ptr %28, align 4
  %29 = load i32, ptr getelementptr inbounds (%struct._zend_gc_globals, ptr @gc_globals, i32 0, i32 8), align 8
  %30 = load ptr, ptr %4, align 8
  %31 = getelementptr inbounds %struct._zend_gc_status, ptr %30, i32 0, i32 6
  store i32 %29, ptr %31, align 8
  %32 = load i32, ptr getelementptr inbounds (%struct._zend_gc_globals, ptr @gc_globals, i32 0, i32 9), align 4
  %33 = load ptr, ptr %4, align 8
  %34 = getelementptr inbounds %struct._zend_gc_status, ptr %33, i32 0, i32 7
  store i32 %32, ptr %34, align 4
  call void @llvm.memset.p0.i64(ptr align 8 %3, i8 0, i64 16, i1 false)
  %35 = call i32 @clock_gettime(i32 noundef 1, ptr noundef %3) #7
  %36 = icmp eq i32 0, %35
  br i1 %36, label %37, label %43

37:                                               ; preds = %1
  %38 = load i64, ptr %3, align 8
  %39 = mul i64 %38, 1000000000
  %40 = getelementptr inbounds %struct.timespec, ptr %3, i32 0, i32 1
  %41 = load i64, ptr %40, align 8
  %42 = add i64 %39, %41
  store i64 %42, ptr %2, align 8
  br label %44

43:                                               ; preds = %1
  store i64 0, ptr %2, align 8
  br label %44

44:                                               ; preds = %43, %37
  %45 = load i64, ptr %2, align 8
  %46 = load i64, ptr getelementptr inbounds (%struct._zend_gc_globals, ptr @gc_globals, i32 0, i32 12), align 8
  %47 = sub i64 %45, %46
  %48 = load ptr, ptr %4, align 8
  %49 = getelementptr inbounds %struct._zend_gc_status, ptr %48, i32 0, i32 8
  store i64 %47, ptr %49, align 8
  %50 = load i64, ptr getelementptr inbounds (%struct._zend_gc_globals, ptr @gc_globals, i32 0, i32 13), align 8
  %51 = load ptr, ptr %4, align 8
  %52 = getelementptr inbounds %struct._zend_gc_status, ptr %51, i32 0, i32 9
  store i64 %50, ptr %52, align 8
  %53 = load i64, ptr getelementptr inbounds (%struct._zend_gc_globals, ptr @gc_globals, i32 0, i32 14), align 8
  %54 = load ptr, ptr %4, align 8
  %55 = getelementptr inbounds %struct._zend_gc_status, ptr %54, i32 0, i32 10
  store i64 %53, ptr %55, align 8
  %56 = load i64, ptr getelementptr inbounds (%struct._zend_gc_globals, ptr @gc_globals, i32 0, i32 15), align 8
  %57 = load ptr, ptr %4, align 8
  %58 = getelementptr inbounds %struct._zend_gc_status, ptr %57, i32 0, i32 11
  store i64 %56, ptr %58, align 8
  ret void
}