; Function Attrs: nounwind uwtable
define void @zend_gc_get_status(ptr nocapture noundef writeonly %0) local_unnamed_addr #2 {
  %2 = alloca %struct.timespec, align 8
  %3 = load i8, ptr getelementptr inbounds (%struct._zend_gc_globals, ptr @gc_globals, i64 0, i32 2), align 1
  %4 = and i8 %3, 1
  store i8 %4, ptr %0, align 8
  %5 = load i8, ptr getelementptr inbounds (%struct._zend_gc_globals, ptr @gc_globals, i64 0, i32 3), align 2
  %6 = and i8 %5, 1
  %7 = getelementptr inbounds i8, ptr %0, i64 1
  store i8 %6, ptr %7, align 1
  %8 = load i8, ptr getelementptr inbounds (%struct._zend_gc_globals, ptr @gc_globals, i64 0, i32 4), align 1
  %9 = and i8 %8, 1
  %10 = getelementptr inbounds i8, ptr %0, i64 2
  store i8 %9, ptr %10, align 2
  %11 = getelementptr inbounds i8, ptr %0, i64 4
  %12 = load <4 x i32>, ptr getelementptr inbounds (%struct._zend_gc_globals, ptr @gc_globals, i64 0, i32 10), align 8
  %13 = load <4 x i32>, ptr getelementptr inbounds (%struct._zend_gc_globals, ptr @gc_globals, i64 0, i32 7), align 4
  %14 = shufflevector <4 x i32> %12, <4 x i32> %13, <4 x i32> <i32 0, i32 1, i32 4, i32 5>
  store <4 x i32> %14, ptr %11, align 4
  %15 = load i32, ptr getelementptr inbounds (%struct._zend_gc_globals, ptr @gc_globals, i64 0, i32 9), align 4
  %16 = getelementptr inbounds i8, ptr %0, i64 20
  store i32 %15, ptr %16, align 4
  call void @llvm.memset.p0.i64(ptr noundef nonnull align 8 dereferenceable(16) %2, i8 0, i64 16, i1 false)
  %17 = call i32 @clock_gettime(i32 noundef 1, ptr noundef nonnull %2) #15
  %18 = icmp eq i32 %17, 0
  br i1 %18, label %19, label %25

19:                                               ; preds = %1
  %20 = load i64, ptr %2, align 8
  %21 = mul i64 %20, 1000000000
  %22 = getelementptr inbounds i8, ptr %2, i64 8
  %23 = load i64, ptr %22, align 8
  %24 = add i64 %21, %23
  br label %25

25:                                               ; preds = %1, %19
  %.0 = phi i64 [ %24, %19 ], [ 0, %1 ]
  %26 = load i64, ptr getelementptr inbounds (%struct._zend_gc_globals, ptr @gc_globals, i64 0, i32 12), align 8
  %27 = sub i64 %.0, %26
  %28 = getelementptr inbounds i8, ptr %0, i64 24
  store i64 %27, ptr %28, align 8
  %29 = getelementptr inbounds i8, ptr %0, i64 32
  %30 = load <2 x i64>, ptr getelementptr inbounds (%struct._zend_gc_globals, ptr @gc_globals, i64 0, i32 13), align 8
  store <2 x i64> %30, ptr %29, align 8
  %31 = load i64, ptr getelementptr inbounds (%struct._zend_gc_globals, ptr @gc_globals, i64 0, i32 15), align 8
  %32 = getelementptr inbounds i8, ptr %0, i64 48
  store i64 %31, ptr %32, align 8
  ret void
}